target datalayout = "e-m:e-p270:32:32-p271:32:32-p272:64:64-i64:64-i128:128-f80:128-n8:16:32:64-S128"
target triple = "x86_64-pc-linux-gnu"

%struct.Vec_Int_t_ = type { i32, i32, ptr }
%struct.sat_solver_t = type { i32, i32, i32, i32, %struct.Sat_Mem_t_, i32, i32, ptr, ptr, i32, i32, i32, i32, i32, i64, i64, i64, ptr, ptr, i32, i32, %struct.veci_t, ptr, i32, ptr, ptr, ptr, ptr, ptr, ptr, ptr, ptr, %struct.veci_t, %struct.veci_t, %struct.veci_t, %struct.veci_t, ptr, %struct.veci_t, i32, i32, i32, double, double, i32, i32, i32, %struct.stats_t, i32, i32, i32, i32, i32, i64, i64, i64, %struct.veci_t, ptr, i32, i32, i32, %struct.veci_t, %struct.veci_t, i32, i32, i32, ptr, ptr, i32, ptr, i32, i32, %struct.veci_t, %struct.veci_t, %struct.veci_t, ptr, ptr, i32, ptr }
%struct.Sat_Mem_t_ = type { [2 x i32], [2 x i32], [2 x i32], [2 x i32], i32, i32, i32, i32, ptr }
%struct.stats_t = type { i32, i32, i32, i64, i64, i64, i64, i64, i64, i64 }
%struct.veci_t = type { i32, i32, ptr }

; Function Attrs: nounwind uwtable
define internal i32 @Sat_MemLimit(ptr noundef %0) #0 {
  %2 = alloca ptr, align 8
  store ptr %0, ptr %2, align 8
  %3 = load ptr, ptr %2, align 8
  %4 = getelementptr inbounds i32, ptr %3, i64 0
  %5 = load i32, ptr %4, align 4
  ret i32 %5
}

; Function Attrs: nounwind uwtable
define internal i32 @Sat_MemHandCurrent(ptr noundef %0, i32 noundef %1) #0 {
  %3 = alloca ptr, align 8
  %4 = alloca i32, align 4
  store ptr %0, ptr %3, align 8
  store i32 %1, ptr %4, align 4
  %5 = load ptr, ptr %3, align 8
  %6 = getelementptr inbounds %struct.Sat_Mem_t_, ptr %5, i32 0, i32 3
  %7 = load i32, ptr %4, align 4
  %8 = sext i32 %7 to i64
  %9 = getelementptr inbounds [2 x i32], ptr %6, i64 0, i64 %8
  %10 = load i32, ptr %9, align 4
  %11 = load ptr, ptr %3, align 8
  %12 = getelementptr inbounds %struct.Sat_Mem_t_, ptr %11, i32 0, i32 4
  %13 = load i32, ptr %12, align 8
  %14 = shl i32 %10, %13
  %15 = load ptr, ptr %3, align 8
  %16 = getelementptr inbounds %struct.Sat_Mem_t_, ptr %15, i32 0, i32 8
  %17 = load ptr, ptr %16, align 8
  %18 = load ptr, ptr %3, align 8
  %19 = getelementptr inbounds %struct.Sat_Mem_t_, ptr %18, i32 0, i32 3
  %20 = load i32, ptr %4, align 4
  %21 = sext i32 %20 to i64
  %22 = getelementptr inbounds [2 x i32], ptr %19, i64 0, i64 %21
  %23 = load i32, ptr %22, align 4
  %24 = sext i32 %23 to i64
  %25 = getelementptr inbounds ptr, ptr %17, i64 %24
  %26 = load ptr, ptr %25, align 8
  %27 = call i32 @Sat_MemLimit(ptr noundef %26)
  %28 = or i32 %14, %27
  ret i32 %28
}

; Function Attrs: nounwind uwtable
define internal void @Sat_MemBookMark(ptr noundef %0) #0 {
  %2 = alloca ptr, align 8
  store ptr %0, ptr %2, align 8
  %3 = load ptr, ptr %2, align 8
  %4 = getelementptr inbounds %struct.Sat_Mem_t_, ptr %3, i32 0, i32 0
  %5 = getelementptr inbounds [2 x i32], ptr %4, i64 0, i64 0
  %6 = load i32, ptr %5, align 8
  %7 = load ptr, ptr %2, align 8
  %8 = getelementptr inbounds %struct.Sat_Mem_t_, ptr %7, i32 0, i32 2
  %9 = getelementptr inbounds [2 x i32], ptr %8, i64 0, i64 0
  store i32 %6, ptr %9, align 8
  %10 = load ptr, ptr %2, align 8
  %11 = getelementptr inbounds %struct.Sat_Mem_t_, ptr %10, i32 0, i32 0
  %12 = getelementptr inbounds [2 x i32], ptr %11, i64 0, i64 1
  %13 = load i32, ptr %12, align 4
  %14 = load ptr, ptr %2, align 8
  %15 = getelementptr inbounds %struct.Sat_Mem_t_, ptr %14, i32 0, i32 2
  %16 = getelementptr inbounds [2 x i32], ptr %15, i64 0, i64 1
  store i32 %13, ptr %16, align 4
  %17 = load ptr, ptr %2, align 8
  %18 = call i32 @Sat_MemHandCurrent(ptr noundef %17, i32 noundef 0)
  %19 = load ptr, ptr %2, align 8
  %20 = getelementptr inbounds %struct.Sat_Mem_t_, ptr %19, i32 0, i32 1
  %21 = getelementptr inbounds [2 x i32], ptr %20, i64 0, i64 0
  store i32 %18, ptr %21, align 8
  %22 = load ptr, ptr %2, align 8
  %23 = call i32 @Sat_MemHandCurrent(ptr noundef %22, i32 noundef 1)
  %24 = load ptr, ptr %2, align 8
  %25 = getelementptr inbounds %struct.Sat_Mem_t_, ptr %24, i32 0, i32 1
  %26 = getelementptr inbounds [2 x i32], ptr %25, i64 0, i64 1
  store i32 %23, ptr %26, align 4
  ret void
}

; Function Attrs: nounwind uwtable
define internal void @sat_solver_bookmark(ptr noundef %0) #0 {
  %2 = alloca ptr, align 8
  store ptr %0, ptr %2, align 8
  %3 = load ptr, ptr %2, align 8
  %4 = getelementptr inbounds %struct.sat_solver_t, ptr %3, i32 0, i32 0
  %5 = load i32, ptr %4, align 8
  %6 = load ptr, ptr %2, align 8
  %7 = getelementptr inbounds %struct.sat_solver_t, ptr %6, i32 0, i32 9
  store i32 %5, ptr %7, align 8
  %8 = load ptr, ptr %2, align 8
  %9 = getelementptr inbounds %struct.sat_solver_t, ptr %8, i32 0, i32 2
  %10 = load i32, ptr %9, align 8
  %11 = load ptr, ptr %2, align 8
  %12 = getelementptr inbounds %struct.sat_solver_t, ptr %11, i32 0, i32 10
  store i32 %10, ptr %12, align 4
  %13 = load ptr, ptr %2, align 8
  %14 = getelementptr inbounds %struct.sat_solver_t, ptr %13, i32 0, i32 4
  call void @Sat_MemBookMark(ptr noundef %14)
  %15 = load ptr, ptr %2, align 8
  %16 = getelementptr inbounds %struct.sat_solver_t, ptr %15, i32 0, i32 18
  %17 = load ptr, ptr %16, align 8
  %18 = icmp ne ptr %17, null
  br i1 %18, label %19, label %36

19:                                               ; preds = %1
  %20 = load ptr, ptr %2, align 8
  %21 = getelementptr inbounds %struct.sat_solver_t, ptr %20, i32 0, i32 14
  %22 = load i64, ptr %21, align 8
  %23 = load ptr, ptr %2, align 8
  %24 = getelementptr inbounds %struct.sat_solver_t, ptr %23, i32 0, i32 15
  store i64 %22, ptr %24, align 8
  %25 = load ptr, ptr %2, align 8
  %26 = getelementptr inbounds %struct.sat_solver_t, ptr %25, i32 0, i32 18
  %27 = load ptr, ptr %26, align 8
  %28 = load ptr, ptr %2, align 8
  %29 = getelementptr inbounds %struct.sat_solver_t, ptr %28, i32 0, i32 17
  %30 = load ptr, ptr %29, align 8
  %31 = load ptr, ptr %2, align 8
  %32 = getelementptr inbounds %struct.sat_solver_t, ptr %31, i32 0, i32 9
  %33 = load i32, ptr %32, align 8
  %34 = sext i32 %33 to i64
  %35 = mul i64 8, %34
  call void @llvm.memcpy.p0.p0.i64(ptr align 8 %27, ptr align 8 %30, i64 %35, i1 false)
  br label %36

36:                                               ; preds = %19, %1
  ret void
}

; Function Attrs: nounwind uwtable
define internal ptr @Vec_IntArray(ptr noundef %0) #0 {
  %2 = alloca ptr, align 8
  store ptr %0, ptr %2, align 8
  %3 = load ptr, ptr %2, align 8
  %4 = getelementptr inbounds %struct.Vec_Int_t_, ptr %3, i32 0, i32 2
  %5 = load ptr, ptr %4, align 8
  ret ptr %5
}

; Function Attrs: nounwind uwtable
define internal i32 @Vec_IntSize(ptr noundef %0) #0 {
  %2 = alloca ptr, align 8
  store ptr %0, ptr %2, align 8
  %3 = load ptr, ptr %2, align 8
  %4 = getelementptr inbounds %struct.Vec_Int_t_, ptr %3, i32 0, i32 1
  %5 = load i32, ptr %4, align 4
  ret i32 %5
}

; Function Attrs: nounwind uwtable
define internal ptr @Vec_IntAlloc(i32 noundef %0) #0 {
  %2 = alloca i32, align 4
  %3 = alloca ptr, align 8
  store i32 %0, ptr %2, align 4
  %4 = call noalias ptr @malloc(i64 noundef 16) #9
  store ptr %4, ptr %3, align 8
  %5 = load i32, ptr %2, align 4
  %6 = icmp sgt i32 %5, 0
  br i1 %6, label %7, label %11

7:                                                ; preds = %1
  %8 = load i32, ptr %2, align 4
  %9 = icmp slt i32 %8, 16
  br i1 %9, label %10, label %11

10:                                               ; preds = %7
  store i32 16, ptr %2, align 4
  br label %11

11:                                               ; preds = %10, %7, %1
  %12 = load ptr, ptr %3, align 8
  %13 = getelementptr inbounds %struct.Vec_Int_t_, ptr %12, i32 0, i32 1
  store i32 0, ptr %13, align 4
  %14 = load i32, ptr %2, align 4
  %15 = load ptr, ptr %3, align 8
  %16 = getelementptr inbounds %struct.Vec_Int_t_, ptr %15, i32 0, i32 0
  store i32 %14, ptr %16, align 8
  %17 = load ptr, ptr %3, align 8
  %18 = getelementptr inbounds %struct.Vec_Int_t_, ptr %17, i32 0, i32 0
  %19 = load i32, ptr %18, align 8
  %20 = icmp ne i32 %19, 0
  br i1 %20, label %21, label %28

21:                                               ; preds = %11
  %22 = load ptr, ptr %3, align 8
  %23 = getelementptr inbounds %struct.Vec_Int_t_, ptr %22, i32 0, i32 0
  %24 = load i32, ptr %23, align 8
  %25 = sext i32 %24 to i64
  %26 = mul i64 4, %25
  %27 = call noalias ptr @malloc(i64 noundef %26) #9
  br label %29

28:                                               ; preds = %11
  br label %29

29:                                               ; preds = %28, %21
  %30 = phi ptr [ %27, %21 ], [ null, %28 ]
  %31 = load ptr, ptr %3, align 8
  %32 = getelementptr inbounds %struct.Vec_Int_t_, ptr %31, i32 0, i32 2
  store ptr %30, ptr %32, align 8
  %33 = load ptr, ptr %3, align 8
  ret ptr %33
}

; Function Attrs: nounwind uwtable
define i32 @Sbm_AddCardinConstrPairWise(ptr noundef %0, ptr noundef %1, i32 noundef %2) #0 {
  %4 = alloca ptr, align 8
  %5 = alloca ptr, align 8
  %6 = alloca i32, align 4
  %7 = alloca i32, align 4
  store ptr %0, ptr %4, align 8
  store ptr %1, ptr %5, align 8
  store i32 %2, ptr %6, align 4
  %8 = load ptr, ptr %5, align 8
  %9 = call i32 @Vec_IntSize(ptr noundef %8)
  store i32 %9, ptr %7, align 4
  %10 = load ptr, ptr %4, align 8
  %11 = load ptr, ptr %5, align 8
  %12 = call ptr @Vec_IntArray(ptr noundef %11)
  %13 = load i32, ptr %7, align 4
  %14 = sub nsw i32 %13, 1
  call void @Sbm_AddCardinConstrRange(ptr noundef %10, ptr noundef %12, i32 noundef 0, i32 noundef %14, ptr noundef %7)
  %15 = load ptr, ptr %4, align 8
  call void @sat_solver_bookmark(ptr noundef %15)
  %16 = load i32, ptr %7, align 4
  ret i32 %16
}

; Function Attrs: nounwind uwtable
define internal ptr @Vec_IntStartNatural(i32 noundef %0) #0 {
  %2 = alloca i32, align 4
  %3 = alloca ptr, align 8
  %4 = alloca i32, align 4
  store i32 %0, ptr %2, align 4
  %5 = load i32, ptr %2, align 4
  %6 = call ptr @Vec_IntAlloc(i32 noundef %5)
  store ptr %6, ptr %3, align 8
  %7 = load i32, ptr %2, align 4
  %8 = load ptr, ptr %3, align 8
  %9 = getelementptr inbounds %struct.Vec_Int_t_, ptr %8, i32 0, i32 1
  store i32 %7, ptr %9, align 4
  store i32 0, ptr %4, align 4
  br label %10

10:                                               ; preds = %22, %1
  %11 = load i32, ptr %4, align 4
  %12 = load i32, ptr %2, align 4
  %13 = icmp slt i32 %11, %12
  br i1 %13, label %14, label %25

14:                                               ; preds = %10
  %15 = load i32, ptr %4, align 4
  %16 = load ptr, ptr %3, align 8
  %17 = getelementptr inbounds %struct.Vec_Int_t_, ptr %16, i32 0, i32 2
  %18 = load ptr, ptr %17, align 8
  %19 = load i32, ptr %4, align 4
  %20 = sext i32 %19 to i64
  %21 = getelementptr inbounds i32, ptr %18, i64 %20
  store i32 %15, ptr %21, align 4
  br label %22

22:                                               ; preds = %14
  %23 = load i32, ptr %4, align 4
  %24 = add nsw i32 %23, 1
  store i32 %24, ptr %4, align 4
  br label %10, !llvm.loop !16

25:                                               ; preds = %10
  %26 = load ptr, ptr %3, align 8
  ret ptr %26
}

; Function Attrs: nounwind uwtable
define ptr @Sbm_AddCardinSolver(i32 noundef %0, ptr noundef %1) #0 {
  %3 = alloca i32, align 4
  %4 = alloca ptr, align 8
  %5 = alloca i32, align 4
  %6 = alloca i32, align 4
  %7 = alloca i32, align 4
  %8 = alloca ptr, align 8
  %9 = alloca ptr, align 8
  store i32 %0, ptr %3, align 4
  store ptr %1, ptr %4, align 8
  %10 = load i32, ptr %3, align 4
  %11 = shl i32 1, %10
  store i32 %11, ptr %5, align 4
  %12 = load i32, ptr %5, align 4
  %13 = load i32, ptr %5, align 4
  %14 = load i32, ptr %3, align 4
  %15 = mul nsw i32 %13, %14
  %16 = load i32, ptr %3, align 4
  %17 = sub nsw i32 %16, 1
  %18 = mul nsw i32 %15, %17
  %19 = sdiv i32 %18, 4
  %20 = load i32, ptr %5, align 4
  %21 = add nsw i32 %19, %20
  %22 = sub nsw i32 %21, 1
  %23 = mul nsw i32 2, %22
  %24 = add nsw i32 %12, %23
  store i32 %24, ptr %6, align 4
  %25 = load i32, ptr %5, align 4
  %26 = call ptr @Vec_IntStartNatural(i32 noundef %25)
  store ptr %26, ptr %8, align 8
  %27 = call ptr @sat_solver_new()
  store ptr %27, ptr %9, align 8
  %28 = load ptr, ptr %9, align 8
  %29 = load i32, ptr %6, align 4
  call void @sat_solver_setnvars(ptr noundef %28, i32 noundef %29)
  %30 = load ptr, ptr %9, align 8
  %31 = load ptr, ptr %8, align 8
  %32 = call i32 @Sbm_AddCardinConstrPairWise(ptr noundef %30, ptr noundef %31, i32 noundef 2)
  store i32 %32, ptr %7, align 4
  %33 = load ptr, ptr %8, align 8
  %34 = load ptr, ptr %4, align 8
  store ptr %33, ptr %34, align 8
  %35 = load ptr, ptr %9, align 8
  ret ptr %35
}