; Function Attrs: nounwind uwtable
define noundef ptr @Sbm_AddCardinSolver(i32 noundef %0, ptr noundef writeonly captures(none) %1) local_unnamed_addr #0 {
  %3 = alloca i32, align 4
  %4 = shl nuw i32 1, %0
  %5 = shl i32 %0, %0
  %6 = add nsw i32 %0, -1
  %7 = mul nsw i32 %5, %6
  %8 = sdiv i32 %7, 4
  %9 = add nsw i32 %8, %4
  %10 = shl i32 %9, 1
  %11 = add i32 %4, -2
  %12 = add i32 %11, %10
  %13 = tail call noalias dereferenceable_or_null(16) ptr @malloc(i64 noundef 16) #15
  %spec.store.select.i.i = tail call i32 @llvm.umax.i32(i32 %4, i32 16)
  %14 = getelementptr inbounds nuw i8, ptr %13, i64 4
  store i32 %spec.store.select.i.i, ptr %13, align 8
  %15 = sext i32 %spec.store.select.i.i to i64
  %16 = shl nsw i64 %15, 2
  %17 = tail call noalias ptr @malloc(i64 noundef %16) #15
  %18 = getelementptr inbounds nuw i8, ptr %13, i64 8
  store ptr %17, ptr %18, align 8
  store i32 %4, ptr %14, align 4
  %.not = icmp eq i32 %0, 31
  br i1 %.not, label %Vec_IntStartNatural.exit, label %.lr.ph.i

.lr.ph.i:                                         ; preds = %2
  %wide.trip.count.i = zext nneg i32 %4 to i64
  br label %19

19:                                               ; preds = %19, %.lr.ph.i
  %indvars.iv.i = phi i64 [ 0, %.lr.ph.i ], [ %indvars.iv.next.i, %19 ]
  %20 = getelementptr inbounds nuw i32, ptr %17, i64 %indvars.iv.i
  %21 = trunc nuw nsw i64 %indvars.iv.i to i32
  store i32 %21, ptr %20, align 4
  %indvars.iv.next.i = add nuw nsw i64 %indvars.iv.i, 1
  %exitcond.not.i = icmp eq i64 %indvars.iv.next.i, %wide.trip.count.i
  br i1 %exitcond.not.i, label %Vec_IntStartNatural.exit, label %19, !llvm.loop !16

Vec_IntStartNatural.exit:                         ; preds = %19, %2
  %22 = tail call ptr @sat_solver_new() #16
  tail call void @sat_solver_setnvars(ptr noundef %22, i32 noundef %12) #16
  call void @llvm.lifetime.start.p0(i64 4, ptr nonnull %3)
  store i32 %4, ptr %3, align 4
  %23 = add nsw i32 %4, -1
  call fastcc void @Sbm_AddCardinConstrRange(ptr noundef %22, ptr noundef %17, i32 noundef 0, i32 noundef %23, ptr noundef %3)
  %24 = load i32, ptr %22, align 8
  %25 = getelementptr inbounds nuw i8, ptr %22, i64 96
  store i32 %24, ptr %25, align 8
  %26 = getelementptr inbounds nuw i8, ptr %22, i64 8
  %27 = load i32, ptr %26, align 8
  %28 = getelementptr inbounds nuw i8, ptr %22, i64 100
  store i32 %27, ptr %28, align 4
  %29 = getelementptr inbounds nuw i8, ptr %22, i64 16
  %30 = load i32, ptr %29, align 8
  %31 = getelementptr inbounds nuw i8, ptr %22, i64 32
  store i32 %30, ptr %31, align 8
  %32 = getelementptr inbounds nuw i8, ptr %22, i64 20
  %33 = load i32, ptr %32, align 4
  %34 = getelementptr inbounds nuw i8, ptr %22, i64 36
  store i32 %33, ptr %34, align 4
  %35 = getelementptr inbounds nuw i8, ptr %22, i64 40
  %36 = load i32, ptr %35, align 4
  %37 = getelementptr inbounds nuw i8, ptr %22, i64 48
  %38 = load i32, ptr %37, align 8
  %39 = shl i32 %36, %38
  %40 = getelementptr inbounds nuw i8, ptr %22, i64 64
  %41 = load ptr, ptr %40, align 8
  %42 = sext i32 %36 to i64
  %43 = getelementptr inbounds ptr, ptr %41, i64 %42
  %44 = load ptr, ptr %43, align 8
  %.val.i.i.i.i = load i32, ptr %44, align 4
  %45 = or i32 %.val.i.i.i.i, %39
  %46 = getelementptr inbounds nuw i8, ptr %22, i64 24
  store i32 %45, ptr %46, align 8
  %47 = getelementptr inbounds nuw i8, ptr %22, i64 44
  %48 = load i32, ptr %47, align 4
  %49 = shl i32 %48, %38
  %50 = sext i32 %48 to i64
  %51 = getelementptr inbounds ptr, ptr %41, i64 %50
  %52 = load ptr, ptr %51, align 8
  %.val.i8.i.i.i = load i32, ptr %52, align 4
  %53 = or i32 %.val.i8.i.i.i, %49
  %54 = getelementptr inbounds nuw i8, ptr %22, i64 28
  store i32 %53, ptr %54, align 4
  %55 = getelementptr inbounds nuw i8, ptr %22, i64 152
  %56 = load ptr, ptr %55, align 8
  %.not.i.i = icmp eq ptr %56, null
  br i1 %.not.i.i, label %Sbm_AddCardinConstrPairWise.exit, label %57

57:                                               ; preds = %Vec_IntStartNatural.exit
  %58 = getelementptr inbounds nuw i8, ptr %22, i64 120
  %59 = load i64, ptr %58, align 8
  %60 = getelementptr inbounds nuw i8, ptr %22, i64 128
  store i64 %59, ptr %60, align 8
  %61 = getelementptr inbounds nuw i8, ptr %22, i64 144
  %62 = load ptr, ptr %61, align 8
  %63 = sext i32 %24 to i64
  %64 = shl nsw i64 %63, 3
  call void @llvm.memcpy.p0.p0.i64(ptr nonnull align 8 %56, ptr align 8 %62, i64 %64, i1 false)
  br label %Sbm_AddCardinConstrPairWise.exit

Sbm_AddCardinConstrPairWise.exit:                 ; preds = %Vec_IntStartNatural.exit, %57
  call void @llvm.lifetime.end.p0(i64 4, ptr nonnull %3)
  store ptr %13, ptr %1, align 8
  ret ptr %22
}